; ModuleID = '54/1034.c'
source_filename = "54/1034.c"
target datalayout = "e-m:e-p270:32:32-p271:32:32-p272:64:64-i64:64-f80:128-n8:16:32:64-S128"
target triple = "x86_64-pc-linux-gnu"

@.str = private unnamed_addr constant [5 x i8] c"%d%d\00", align 1
@.str.1 = private unnamed_addr constant [4 x i8] c"%d\0A\00", align 1

; Function Attrs: noinline nounwind uwtable
define dso_local i32 @main() #0 {
  %1 = alloca i32, align 4
  %2 = alloca i32, align 4
  %3 = alloca i32, align 4
  store i32 0, i32* %1, align 4
  %4 = call i32 (i8*, ...) @__isoc99_scanf(i8* getelementptr inbounds ([5 x i8], [5 x i8]* @.str, i64 0, i64 0), i32* %2, i32* %3)
  %5 = load i32, i32* %2, align 4
  %6 = load i32, i32* %2, align 4
  %7 = load i32, i32* %3, align 4
  %8 = call i32 @amount(i32 %5, i32 %6, i32 %7)
  %9 = call i32 (i8*, ...) @printf(i8* getelementptr inbounds ([4 x i8], [4 x i8]* @.str.1, i64 0, i64 0), i32 %8)
  ret i32 0
}

declare dso_local i32 @__isoc99_scanf(i8*, ...) #1

declare dso_local i32 @printf(i8*, ...) #1

; Function Attrs: noinline nounwind uwtable
define dso_local i32 @amount(i32 %0, i32 %1, i32 %2) #0 {
  %4 = alloca i32, align 4
  %5 = alloca i32, align 4
  %6 = alloca i32, align 4
  %7 = alloca i32, align 4
  %8 = alloca i32, align 4
  %9 = alloca i32, align 4
  %10 = alloca i32, align 4
  %11 = alloca i32, align 4
  store i32 %0, i32* %4, align 4
  store i32 %1, i32* %5, align 4
  store i32 %2, i32* %6, align 4
  store i32 0, i32* %7, align 4
  store i32 0, i32* %8, align 4
  store i32 0, i32* %10, align 4
  br label %12

12:                                               ; preds = %50, %3
  %13 = load i32, i32* %8, align 4
  %14 = icmp eq i32 %13, 0
  br i1 %14, label %15, label %51

15:                                               ; preds = %12
  %16 = load i32, i32* %7, align 4
  %17 = add nsw i32 %16, 1
  store i32 %17, i32* %7, align 4
  %18 = load i32, i32* %7, align 4
  %19 = load i32, i32* %5, align 4
  %20 = add nsw i32 %18, %19
  store i32 %20, i32* %9, align 4
  store i32 0, i32* %11, align 4
  br label %21

21:                                               ; preds = %47, %15
  %22 = load i32, i32* %11, align 4
  %23 = load i32, i32* %4, align 4
  %24 = icmp slt i32 %22, %23
  br i1 %24, label %25, label %50

25:                                               ; preds = %21
  %26 = load i32, i32* %9, align 4
  %27 = load i32, i32* %5, align 4
  %28 = sub nsw i32 %27, 1
  %29 = sdiv i32 %26, %28
  %30 = load i32, i32* %5, align 4
  %31 = sub nsw i32 %30, 1
  %32 = mul nsw i32 %29, %31
  %33 = load i32, i32* %9, align 4
  %34 = icmp slt i32 %32, %33
  br i1 %34, label %35, label %36

35:                                               ; preds = %25
  store i32 0, i32* %8, align 4
  br label %47

36:                                               ; preds = %25
  store i32 1, i32* %8, align 4
  br label %37

37:                                               ; preds = %36
  %38 = load i32, i32* %9, align 4
  %39 = load i32, i32* %5, align 4
  %40 = sub nsw i32 %39, 1
  %41 = sdiv i32 %38, %40
  %42 = load i32, i32* %5, align 4
  %43 = mul nsw i32 %41, %42
  %44 = load i32, i32* %6, align 4
  %45 = add nsw i32 %43, %44
  store i32 %45, i32* %10, align 4
  %46 = load i32, i32* %10, align 4
  store i32 %46, i32* %9, align 4
  br label %47

47:                                               ; preds = %37, %35
  %48 = load i32, i32* %11, align 4
  %49 = add nsw i32 %48, 1
  store i32 %49, i32* %11, align 4
  br label %21

50:                                               ; preds = %21
  br label %12

51:                                               ; preds = %12
  %52 = load i32, i32* %10, align 4
  ret i32 %52
}


!llvm.module.flags = !{!0}
!llvm.ident = !{!1}

!0 = !{i32 1, !"wchar_size", i32 4}
!1 = !{!"clang version 10.0.0-4ubuntu1 "}
